(lp1
((F311.00836181640625
F79.662361145019531
tF31
F151.32725524902344
F5378.92529296875
I1
I1
tp2
a((F311.17410278320312
F79.684028625488281
tF29
F119.69430541992188
F5343.49560546875
I0
I1
tp3
a((F167.43446350097656
F93.727996826171875
tF32
F23.443307876586914
F5040.2080078125
I1
I1
tp4
a((F167.36424255371094
F93.824081420898438
tF29
F20.620651245117188
F4961.2509765625
I0
I1
tp5
a((F218.06982421875
F34.763130187988281
tF30
F247.51235961914062
F4509.87646484375
I1
I1
tp6
a((F218.14263916015625
F34.840019226074219
tF27
F242.96684265136719
F4438.24169921875
I0
I1
tp7
a((F178.10321044921875
F140.90274047851562
tF33
F328.73568725585938
F4286.73193359375
I1
I1
tp8
a((F308.65737915039062
F149.95414733886719
tF26
F210.95571899414062
F4038.4521484375
I0
I1
tp9
a((F308.7227783203125
F149.92063903808594
tF29
F206.17568969726562
F3860.0341796875
I1
I1
tp10
a((F178.45881652832031
F22.959716796875
tF31
F260.88153076171875
F3828.349853515625
I1
I1
tp11
a((F178.25604248046875
F23.070974349975586
tF28
F62.839973449707031
F3804.57666015625
I0
I1
tp12
a((F289.19497680664062
F38.147132873535156
tF25
F148.41331481933594
F3601.67041015625
I0
I1
tp13
a((F122.13641357421875
F92.787086486816406
tF23
F284.2208251953125
F3468.4033203125
I0
I1
tp14
a((F289.033447265625
F38.212306976318359
tF30
F148.4635009765625
F3447.135498046875
I1
I1
tp15
a((F283.50506591796875
F195.87770080566406
tF26
F271.21868896484375
F3332.42724609375
I0
I1
tp16
a((F142.09736633300781
F23.585298538208008
tF27
F95.417015075683594
F3325.669921875
I1
I1
tp17
a((F176.54998779296875
F68.835258483886719
tF20
F327.54022216796875
F3213.85595703125
I0
I1
tp18
a((F220.74484252929688
F174.29335021972656
tF26
F297.5306396484375
F3155.674072265625
I0
I1
tp19
a((F283.52731323242188
F195.9664306640625
tF29
F290.309326171875
F3155.431640625
I1
I1
tp20
a((F268.09213256835938
F150.91398620605469
tF23
F0.75673097372055054
F3154.097900390625
I0
I1
tp21
a((F91.642196655273438
F66.191055297851562
tF24
F128.70498657226562
F3120.05126953125
I0
I1
tp22
a((F220.71661376953125
F174.21745300292969
tF29
F298.24703979492188
F3032.95458984375
I1
I1
tp23
a((F26.271106719970703
F47.321670532226562
tF22
F157.06353759765625
F2993.167236328125
I0
I1
tp24
a((F326.95108032226562
F55.201061248779297
tF28
F119.23140716552734
F2992.81494140625
I1
I1
tp25
a((F298.2423095703125
F23.447933197021484
tF16
F297.75875854492188
F2845.07275390625
I0
I1
tp26
a((F91.661384582519531
F65.930252075195312
tF28
F121.14541625976562
F2795.607177734375
I1
I1
tp27
a((F122.27123260498047
F92.907478332519531
tF26
F286.587158203125
F2754.87646484375
I1
I1
tp28
a((F363.65090942382812
F190.695556640625
tF23
F247.72369384765625
F2688.667236328125
I0
I1
tp29
a((F193.71725463867188
F189.81434631347656
tF25
F209.25010681152344
F2520.776611328125
I0
I1
tp30
a((F202.55340576171875
F106.45877075195312
tF30
F138.83154296875
F2485.797607421875
I1
I1
tp31
a((F202.90412902832031
F106.40357208251953
tF26
F128.30816650390625
F2476.867919921875
I0
I1
tp32
a((F70.542739868164062
F35.679615020751953
tF21
F253.4256591796875
F2435.7060546875
I0
I1
tp33
a((F166.05401611328125
F110.62235260009766
tF15
F34.069770812988281
F2419.245849609375
I0
I1
tp34
a((F221.51824951171875
F71.3240966796875
tF16
F243.87619018554688
F2391.30810546875
I0
I1
tp35
a((F193.97776794433594
F189.37889099121094
tF29
F207.00157165527344
F2380.00244140625
I1
I1
tp36
a((F265.68447875976562
F71.345237731933594
tF25
F348.81060791015625
F2360.619384765625
I0
I1
tp37
a((F202.46357727050781
F140.17942810058594
tF18
F256.19512939453125
F2322.17724609375
I0
I1
tp38
a((F265.2781982421875
F71.665443420410156
tF30
F357.59771728515625
F2309.821533203125
I1
I1
tp39
a((F198.39578247070312
F104.98316955566406
tF16
F278.40887451171875
F2277.49267578125
I0
I1
tp40
a((F228.87142944335938
F69.506370544433594
tF17
F67.190582275390625
F2232.315673828125
I0
I1
tp41
a((F173.59849548339844
F251.65095520019531
tF25
F297.48995971679688
F2202.91162109375
I0
I1
tp42
a((F197.50196838378906
F80.986587524414062
tF13
F230.75617980957031
F2173.624267578125
I0
I1
tp43
a((F32.074436187744141
F157.10263061523438
tF21
F352.515625
F2170.92333984375
I0
I1
tp44
a((F225.38331604003906
F70.614112854003906
tF29
F226.07891845703125
F2137.964111328125
I1
I1
tp45
a((F363.4866943359375
F190.86616516113281
tF25
F246.42758178710938
F2112.031005859375
I1
I1
tp46
a((F157.59950256347656
F167.59072875976562
tF24
F312.45181274414062
F2055.841796875
I0
I1
tp47
a((F173.35601806640625
F251.56884765625
tF29
F295.1346435546875
F2041.0003662109375
I1
I1
tp48
a((F80.408470153808594
F151.377197265625
tF23
F242.17440795898438
F2009.6859130859375
I0
I1
tp49
a((F344.06430053710938
F96.113227844238281
tF21
F279.21047973632812
F1991.1990966796875
I0
I1
tp50
a((F273.20401000976562
F102.59553527832031
tF17
F274.789306640625
F1966.16748046875
I0
I1
tp51
a((F404.42782592773438
F30.824789047241211
tF21
F329.4937744140625
F1912.2628173828125
I0
I1
tp52
a((F157.89219665527344
F167.37940979003906
tF29
F290.66046142578125
F1862.4599609375
I1
I1
tp53
a((F163.93338012695312
F62.279655456542969
tF14
F292.62747192382812
F1744.7261962890625
I0
I1
tp54
a((F107.27678680419922
F159.0025634765625
tF23
F288.11215209960938
F1740.901123046875
I0
I1
tp55
a((F280.54074096679688
F241.49465942382812
tF23
F227.82356262207031
F1711.2052001953125
I0
I1
tp56
a((F330.73257446289062
F85.659049987792969
tF16
F185.63911437988281
F1662.8468017578125
I0
I1
tp57
a((F239.04023742675781
F90.393821716308594
tF20
F200.98904418945312
F1650.3756103515625
I0
I1
tp58
a((F92.094154357910156
F201.77676391601562
tF21
F335.54168701171875
F1621.75732421875
I0
I1
tp59
a((F115.63514709472656
F203.55416870117188
tF23
F101.81706237792969
F1569.9324951171875
I0
I1
tp60
a((F376.43450927734375
F85.345252990722656
tF23
F214.84080505371094
F1559.7838134765625
I0
I1
tp61
a((F253.12138366699219
F184.79238891601562
tF27
F293.72015380859375
F1557.3533935546875
I1
I1
tp62
a((F22.511106491088867
F161.85487365722656
tF19
F72.309242248535156
F1556.11474609375
I0
I-1
tp63
a((F399.10641479492188
F106.83689880371094
tF22
F310.05789184570312
F1536.1925048828125
I0
I1
tp64
a((F239.94210815429688
F116.20743560791016
tF21
F70.198974609375
F1512.7982177734375
I0
I-1
tp65
a((F337.73480224609375
F171.41319274902344
tF21
F261.0255126953125
F1500.9444580078125
I0
I1
tp66
a((F237.79801940917969
F106.0616455078125
tF28
F191.94969177246094
F1486.5489501953125
I0
I1
tp67
a((F365.71035766601562
F242.82801818847656
tF22
F74.852691650390625
F1479.760498046875
I0
I1
tp68
a((F346.2786865234375
F18.652843475341797
tF21
F99.946861267089844
F1467.01611328125
I0
I1
tp69
a((F74.470405578613281
F127.27935028076172
tF23
F120.61149597167969
F1424.3802490234375
I0
I1
tp70
a((F390.09527587890625
F259.11419677734375
tF18
F358.7115478515625
F1420.5404052734375
I0
I1
tp71
a((F103.07198333740234
F158.55685424804688
tF31
F276.17599487304688
F1416.7755126953125
I1
I1
tp72
a((F238.35191345214844
F105.53363037109375
tF32
F192.39103698730469
F1357.0592041015625
I1
I1
tp73
a((F353.33218383789062
F134.44598388671875
tF23
F261.58544921875
F1329.044189453125
I0
I1
tp74
a((F294.87347412109375
F129.03213500976562
tF30
F224.80769348144531
F1296.0863037109375
I1
I1
tp75
a((F35.837554931640625
F108.47257995605469
tF23
F155.15196228027344
F1292.1441650390625
I0
I1
tp76
a((F232.36820983886719
F25.632938385009766
tF15
F253.07896423339844
F1284.64453125
I0
I1
tp77
a((F280.27066040039062
F241.62930297851562
tF27
F220.55596923828125
F1259.587158203125
I1
I1
tp78
a((F219.11952209472656
F259.779296875
tF15
F79.027320861816406
F1254.2933349609375
I0
I1
tp79
a((F233.2872314453125
F196.13877868652344
tF19
F84.039955139160156
F1235.5369873046875
I0
I1
tp80
a((F240.08229064941406
F101.97838592529297
tF50
F300.97897338867188
F1221.702392578125
I1
I1
tp81
a((F116.11702728271484
F203.41976928710938
tF26
F88.123489379882812
F1206.68017578125
I1
I1
tp82
a((F67.412567138671875
F255.93833923339844
tF22
F123.84185791015625
F1192.73681640625
I0
I1
tp83
a((F389.167236328125
F68.416641235351562
tF31
F84.233207702636719
F1167.3319091796875
I1
I1
tp84
a((F217.12593078613281
F259.51431274414062
tF20
F266.543212890625
F1156.546630859375
I0
I1
tp85
a((F401.3204345703125
F210.41201782226562
tF24
F35.099502563476562
F1133.688232421875
I0
I1
tp86
a((F375.30038452148438
F85.331184387207031
tF26
F180.20294189453125
F1128.4591064453125
I1
I1
tp87
a((F317.02755737304688
F129.95175170898438
tF27
F241.23358154296875
F1122.9915771484375
I0
I1
tp88
a((F111.94744110107422
F46.833911895751953
tF16
F116.56617736816406
F1118.90869140625
I0
I1
tp89
a((F388.557861328125
F68.668556213378906
tF29
F86.198982238769531
F1118.0706787109375
I0
I1
tp90
a((F225.32937622070312
F221.27735900878906
tF23
F321.16754150390625
F1073.7542724609375
I0
I1
tp91
a((F317.59375
F130.11392211914062
tF30
F237.84817504882812
F1072.0810546875
I1
I1
tp92
a((F152.3565673828125
F209.62847900390625
tF57
F90.139823913574219
F1053.900634765625
I1
I1
tp93
a((F155.31866455078125
F217.51254272460938
tF33
F95.684616088867188
F1035.090576171875
I1
I1
tp94
a((F151.8524169921875
F185.4334716796875
tF18
F211.19949340820312
F1020.5752563476562
I0
I1
tp95
a((F153.88613891601562
F206.86634826660156
tF66
F219.65788269042969
F1017.76220703125
I2
I1
tp96
a((F287.63253784179688
F225.4903564453125
tF21
F286.75860595703125
F1006.0103149414062
I0
I1
tp97
a((F18.05487060546875
F151.06599426269531
tF28
F334.15298461914062
F985.1466064453125
I0
I1
tp98
a((F357.89266967773438
F46.013301849365234
tF35
F230.55693054199219
F975.44085693359375
I1
I1
tp99
a((F351.244140625
F46.489418029785156
tF20
F107.61920166015625
F963.65289306640625
I0
I1
tp100
a((F36.050674438476562
F108.69174957275391
tF26
F348.57211303710938
F943.61456298828125
I1
I1
tp101
a((F171.23878479003906
F194.97303771972656
tF19
F304.2001953125
F943.15765380859375
I0
I1
tp102
a((F88.602745056152344
F185.43849182128906
tF17
F20.918619155883789
F925.66864013671875
I0
I1
tp103
a((F77.479644775390625
F15.407744407653809
tF20
F74.268157958984375
F917.44183349609375
I0
I1
tp104
a((F386.00790405273438
F144.72454833984375
tF33
F256.70919799804688
F905.6524658203125
I1
I1
tp105
a((F329.44204711914062
F93.66998291015625
tF13
F184.67306518554688
F889.93670654296875
I0
I1
tp106
a((F58.155242919921875
F56.9326171875
tF32
F210.38175964355469
F885.7125244140625
I1
I1
tp107
a((F17.000091552734375
F126.04610443115234
tF17
F351.2596435546875
F858.09368896484375
I0
I1
tp108
a((F290.70440673828125
F90.214256286621094
tF16
F195.87274169921875
F840.3118896484375
I0
I1
tp109
a((F99.023330688476562
F126.25685119628906
tF15
F76.380531311035156
F831.4921875
I0
I1
tp110
a((F97.845191955566406
F116.39725494384766
tF14
F268.75323486328125
F818.6468505859375
I0
I1
tp111
a((F28.91093635559082
F145.72975158691406
tF23
F340.42642211914062
F818.03204345703125
I0
I-1
tp112
a((F93.062088012695312
F121.97831726074219
tF35
F88.511672973632812
F814.8245849609375
I1
I1
tp113
a((F133.44140625
F243.88084411621094
tF34
F258.8336181640625
F800.0604248046875
I1
I1
tp114
a((F404.27880859375
F66.0692138671875
tF15
F78.104850769042969
F777.77520751953125
I0
I1
tp115
a((F107.54154205322266
F32.204288482666016
tF13
F206.90174865722656
F754.91632080078125
I0
I1
tp116
a((F225.77375793457031
F221.49418640136719
tF28
F325.01571655273438
F754.83465576171875
I1
I1
tp117
a((F30.532957077026367
F24.60765266418457
tF24
F5.4778528213500977
F742.51434326171875
I0
I1
tp118
a((F261.15032958984375
F210.91043090820312
tF19
F22.832090377807617
F740.388427734375
I0
I1
tp119
a((F387.1539306640625
F168.21542358398438
tF32
F170.57276916503906
F732.4464111328125
I1
I1
tp120
a((F18.589824676513672
F242.97488403320312
tF17
F271.28448486328125
F716.24761962890625
I0
I-1
tp121
a((F44.204608917236328
F74.073501586914062
tF21
F164.4354248046875
F714.4403076171875
I0
I1
tp122
a((F334.6982421875
F23.228229522705078
tF27
F111.19374084472656
F713.90869140625
I0
I-1
tp123
a((F28.768579483032227
F144.27604675292969
tF28
F337.79605102539062
F711.881591796875
I1
I-1
tp124
a((F87.859718322753906
F127.73689270019531
tF15
F94.723800659179688
F699.5848388671875
I0
I1
tp125
a((F339.04751586914062
F33.406692504882812
tF52
F110.53804779052734
F697.08758544921875
I1
I-1
tp126
a((F86.582366943359375
F117.67131042480469
tF17
F260.19317626953125
F686.92034912109375
I0
I1
tp127
a((F334.39385986328125
F23.616188049316406
tF29
F81.906723022460938
F682.4471435546875
I1
I-1
tp128
a((F248.07394409179688
F254.82888793945312
tF17
F327.88421630859375
F661.9581298828125
I0
I1
tp129
a((F263.60748291015625
F48.101753234863281
tF30
F351.27340698242188
F650.40374755859375
I1
I1
tp130
a((F336.11410522460938
F219.55607604980469
tF21
F306.79473876953125
F649.9005126953125
I0
I1
tp131
a((F26.633522033691406
F218.59637451171875
tF20
F76.949775695800781
F640.39691162109375
I0
I-1
tp132
a((F382.68283081054688
F18.027158737182617
tF15
F79.324371337890625
F633.88116455078125
I0
I1
tp133
a((F263.42141723632812
F48.496990203857422
tF27
F354.16107177734375
F633.033203125
I0
I1
tp134
a((F98.087074279785156
F141.11151123046875
tF43
F266.99227905273438
F632.13897705078125
I1
I-1
tp135
a((F389.52066040039062
F49.655868530273438
tF20
F8.7492132186889648
F623.66632080078125
I0
I1
tp136
a((F138.75775146484375
F213.84202575683594
tF15
F191.72320556640625
F622.81072998046875
I0
I1
tp137
a((F21.14752197265625
F154.29273986816406
tF15
F68.998420715332031
F608.23626708984375
I0
I1
tp138
a((F124.15264892578125
F246.990966796875
tF15
F98.363151550292969
F607.9381103515625
I0
I-1
tp139
a((F256.01797485351562
F90.408027648925781
tF41
F293.637451171875
F601.21466064453125
I1
I-1
tp140
a((F372.77798461914062
F11.66951847076416
tF15
F265.67843627929688
F599.02862548828125
I0
I1
tp141
a((F377.7587890625
F169.22671508789062
tF14
F138.18211364746094
F597.73046875
I0
I1
tp142
a((F381.9705810546875
F11.331089019775391
tF16
F278.57693481445312
F594.158935546875
I0
I1
tp143
a((F18.413278579711914
F238.98495483398438
tF27
F259.20208740234375
F576.25103759765625
I0
I-1
tp144
a((F319.2747802734375
F30.18577766418457
tF30
F174.46481323242188
F570.64276123046875
I1
I1
tp145
a((F30.178611755371094
F23.667695999145508
tF28
F3.9795503616333008
F570.42205810546875
I1
I1
tp146
a((F100.77666473388672
F257.53567504882812
tF20
F108.47216796875
F564.42156982421875
I0
I1
tp147
a((F196.3665771484375
F17.549644470214844
tF22
F53.172416687011719
F561.00201416015625
I0
I1
tp148
a((F139.8748779296875
F212.14999389648438
tF21
F182.10874938964844
F560.365478515625
I0
I1
tp149
a((F319.55953979492188
F30.174636840820312
tF29
F174.15335083007812
F542.97454833984375
I0
I1
tp150
a((F148.48435974121094
F120.56647491455078
tF30
F212.03651428222656
F542.83837890625
I1
I1
tp151
a((F28.149730682373047
F242.71403503417969
tF16
F255.33821105957031
F542.2899169921875
I0
I1
tp152
a((F232.89497375488281
F257.9560546875
tF17
F210.30281066894531
F540.56231689453125
I0
I1
tp153
a((F158.80160522460938
F209.14485168457031
tF13
F207.37530517578125
F536.53973388671875
I0
I-1
tp154
a((F259.9627685546875
F228.099609375
tF17
F6.1932768821716309
F533.7584228515625
I0
I-1
tp155
a((F101.80978393554688
F167.78678894042969
tF16
F22.224966049194336
F528.99945068359375
I0
I-1
tp156
a((F250.98867797851562
F246.36708068847656
tF20
F36.560733795166016
F528.67401123046875
I0
I-1
tp157
a((F148.884521484375
F120.38214874267578
tF28
F272.58944702148438
F528.58050537109375
I0
I1
tp158
a((F158.04423522949219
F222.42442321777344
tF16
F106.57727813720703
F527.5762939453125
I0
I1
tp159
a((F302.40402221679688
F33.393165588378906
tF29
F321.98251342773438
F516.5963134765625
I0
I-1
tp160
a((F171.20718383789062
F58.834667205810547
tF21
F296.80709838867188
F508.97543334960938
I0
I-1
tp161
a((F138.92121887207031
F237.99765014648438
tF22
F316.68679809570312
F508.79864501953125
I0
I1
tp162
a((F231.10966491699219
F34.093002319335938
tF20
F349.33306884765625
F505.822265625
I0
I-1
tp163
a.